target datalayout = "e-m:e-p270:32:32-p271:32:32-p272:64:64-i64:64-i128:128-f80:128-n8:16:32:64-S128"
target triple = "x86_64-pc-linux-gnu"

%struct.atomic_u_t = type { i32 }
%struct.seq_hooks_t = type { %struct.atomic_zu_t, [5 x %struct.atomic_zu_t] }
%struct.atomic_zu_t = type { i64 }
%struct.hooks_internal_s = type { %struct.hooks_s, i8 }
%struct.hooks_s = type { ptr, ptr, ptr, ptr }

@nhooks = internal global %struct.atomic_u_t zeroinitializer, align 4
@hooks = internal global [4 x %struct.seq_hooks_t] zeroinitializer, align 16

; Function Attrs: alwaysinline nounwind uwtable
define internal void @atomic_fence(i32 noundef %0) #4 {
  %2 = alloca i32, align 4
  store i32 %0, ptr %2, align 4, !tbaa !14
  %3 = load i32, ptr %2, align 4, !tbaa !14
  %4 = call i32 @atomic_enum_to_builtin(i32 noundef %3)
  switch i32 %4, label %9 [
    i32 1, label %5
    i32 2, label %5
    i32 3, label %6
    i32 4, label %7
    i32 5, label %8
  ]

5:                                                ; preds = %1, %1
  fence acquire
  br label %9

6:                                                ; preds = %1
  fence release
  br label %9

7:                                                ; preds = %1
  fence acq_rel
  br label %9

8:                                                ; preds = %1
  fence seq_cst
  br label %9

9:                                                ; preds = %8, %7, %6, %5, %1
  ret void
}

; Function Attrs: alwaysinline nounwind uwtable
define internal i64 @atomic_load_zu(ptr noundef %0, i32 noundef %1) #4 {
  %3 = alloca ptr, align 8
  %4 = alloca i32, align 4
  %5 = alloca i64, align 8
  store ptr %0, ptr %3, align 8, !tbaa !11
  store i32 %1, ptr %4, align 4, !tbaa !14
  call void @llvm.lifetime.start.p0(i64 8, ptr %5) #9
  %6 = load ptr, ptr %3, align 8, !tbaa !11
  %7 = getelementptr inbounds nuw %struct.atomic_zu_t, ptr %6, i32 0, i32 0
  %8 = load i32, ptr %4, align 4, !tbaa !14
  %9 = call i32 @atomic_enum_to_builtin(i32 noundef %8)
  switch i32 %9, label %10 [
    i32 1, label %12
    i32 2, label %12
    i32 5, label %14
  ]

10:                                               ; preds = %2
  %11 = load atomic i64, ptr %7 monotonic, align 8
  store i64 %11, ptr %5, align 8
  br label %16

12:                                               ; preds = %2, %2
  %13 = load atomic i64, ptr %7 acquire, align 8
  store i64 %13, ptr %5, align 8
  br label %16

14:                                               ; preds = %2
  %15 = load atomic i64, ptr %7 seq_cst, align 8
  store i64 %15, ptr %5, align 8
  br label %16

16:                                               ; preds = %14, %12, %10
  %17 = load i64, ptr %5, align 8, !tbaa !26
  call void @llvm.lifetime.end.p0(i64 8, ptr %5) #9
  ret i64 %17
}

; Function Attrs: alwaysinline nounwind uwtable
define internal i32 @atomic_enum_to_builtin(i32 noundef %0) #4 {
  %2 = alloca i32, align 4
  %3 = alloca i32, align 4
  store i32 %0, ptr %3, align 4, !tbaa !14
  %4 = load i32, ptr %3, align 4, !tbaa !14
  switch i32 %4, label %10 [
    i32 0, label %5
    i32 1, label %6
    i32 2, label %7
    i32 3, label %8
    i32 4, label %9
  ]

5:                                                ; preds = %1
  store i32 0, ptr %2, align 4
  br label %12

6:                                                ; preds = %1
  store i32 2, ptr %2, align 4
  br label %12

7:                                                ; preds = %1
  store i32 3, ptr %2, align 4
  br label %12

8:                                                ; preds = %1
  store i32 4, ptr %2, align 4
  br label %12

9:                                                ; preds = %1
  store i32 5, ptr %2, align 4
  br label %12

10:                                               ; preds = %1
  br label %11

11:                                               ; preds = %10
  unreachable

12:                                               ; preds = %5, %6, %7, %8, %9
  %13 = load i32, ptr %2, align 4
  ret i32 %13
}

; Function Attrs: inlinehint nounwind uwtable
define internal zeroext i1 @seq_try_load_hooks(ptr noundef %0, ptr noundef %1) #2 {
  %3 = alloca i1, align 1
  %4 = alloca ptr, align 8
  %5 = alloca ptr, align 8
  %6 = alloca [5 x i64], align 16
  %7 = alloca i64, align 8
  %8 = alloca i32, align 4
  %9 = alloca i64, align 8
  %10 = alloca i64, align 8
  store ptr %0, ptr %4, align 8, !tbaa !35
  store ptr %1, ptr %5, align 8, !tbaa !11
  call void @llvm.lifetime.start.p0(i64 40, ptr %6) #9
  call void @llvm.lifetime.start.p0(i64 8, ptr %7) #9
  %11 = load ptr, ptr %5, align 8, !tbaa !11
  %12 = getelementptr inbounds nuw %struct.seq_hooks_t, ptr %11, i32 0, i32 0
  %13 = call i64 @atomic_load_zu(ptr noundef %12, i32 noundef 1)
  store i64 %13, ptr %7, align 8, !tbaa !26
  %14 = load i64, ptr %7, align 8, !tbaa !26
  %15 = urem i64 %14, 2
  %16 = icmp ne i64 %15, 0
  br i1 %16, label %17, label %18

17:                                               ; preds = %2
  store i1 false, ptr %3, align 1
  store i32 1, ptr %8, align 4
  br label %46

18:                                               ; preds = %2
  call void @llvm.lifetime.start.p0(i64 8, ptr %9) #9
  store i64 0, ptr %9, align 8, !tbaa !26
  br label %19

19:                                               ; preds = %31, %18
  %20 = load i64, ptr %9, align 8, !tbaa !26
  %21 = icmp ult i64 %20, 5
  br i1 %21, label %23, label %22

22:                                               ; preds = %19
  store i32 2, ptr %8, align 4
  call void @llvm.lifetime.end.p0(i64 8, ptr %9) #9
  br label %34

23:                                               ; preds = %19
  %24 = load ptr, ptr %5, align 8, !tbaa !11
  %25 = getelementptr inbounds nuw %struct.seq_hooks_t, ptr %24, i32 0, i32 1
  %26 = load i64, ptr %9, align 8, !tbaa !26
  %27 = getelementptr inbounds nuw [5 x %struct.atomic_zu_t], ptr %25, i64 0, i64 %26
  %28 = call i64 @atomic_load_zu(ptr noundef %27, i32 noundef 0)
  %29 = load i64, ptr %9, align 8, !tbaa !26
  %30 = getelementptr inbounds nuw [5 x i64], ptr %6, i64 0, i64 %29
  store i64 %28, ptr %30, align 8, !tbaa !26
  br label %31

31:                                               ; preds = %23
  %32 = load i64, ptr %9, align 8, !tbaa !26
  %33 = add i64 %32, 1
  store i64 %33, ptr %9, align 8, !tbaa !26
  br label %19, !llvm.loop !37

34:                                               ; preds = %22
  call void @atomic_fence(i32 noundef 1)
  call void @llvm.lifetime.start.p0(i64 8, ptr %10) #9
  %35 = load ptr, ptr %5, align 8, !tbaa !11
  %36 = getelementptr inbounds nuw %struct.seq_hooks_t, ptr %35, i32 0, i32 0
  %37 = call i64 @atomic_load_zu(ptr noundef %36, i32 noundef 0)
  store i64 %37, ptr %10, align 8, !tbaa !26
  %38 = load i64, ptr %7, align 8, !tbaa !26
  %39 = load i64, ptr %10, align 8, !tbaa !26
  %40 = icmp ne i64 %38, %39
  br i1 %40, label %41, label %42

41:                                               ; preds = %34
  store i1 false, ptr %3, align 1
  store i32 1, ptr %8, align 4
  br label %45

42:                                               ; preds = %34
  %43 = load ptr, ptr %4, align 8, !tbaa !35
  %44 = getelementptr inbounds [5 x i64], ptr %6, i64 0, i64 0
  call void @llvm.memcpy.p0.p0.i64(ptr align 8 %43, ptr align 16 %44, i64 40, i1 false)
  store i1 true, ptr %3, align 1
  store i32 1, ptr %8, align 4
  br label %45

45:                                               ; preds = %42, %41
  call void @llvm.lifetime.end.p0(i64 8, ptr %10) #9
  br label %46

46:                                               ; preds = %45, %17
  call void @llvm.lifetime.end.p0(i64 8, ptr %7) #9
  call void @llvm.lifetime.end.p0(i64 40, ptr %6) #9
  %47 = load i1, ptr %3, align 1
  ret i1 %47
}

; Function Attrs: alwaysinline nounwind uwtable
define internal i32 @atomic_load_u(ptr noundef %0, i32 noundef %1) #4 {
  %3 = alloca ptr, align 8
  %4 = alloca i32, align 4
  %5 = alloca i32, align 4
  store ptr %0, ptr %3, align 8, !tbaa !11
  store i32 %1, ptr %4, align 4, !tbaa !14
  call void @llvm.lifetime.start.p0(i64 4, ptr %5) #9
  %6 = load ptr, ptr %3, align 8, !tbaa !11
  %7 = getelementptr inbounds nuw %struct.atomic_u_t, ptr %6, i32 0, i32 0
  %8 = load i32, ptr %4, align 4, !tbaa !14
  %9 = call i32 @atomic_enum_to_builtin(i32 noundef %8)
  switch i32 %9, label %10 [
    i32 1, label %12
    i32 2, label %12
    i32 5, label %14
  ]

10:                                               ; preds = %2
  %11 = load atomic i32, ptr %7 monotonic, align 4
  store i32 %11, ptr %5, align 4
  br label %16

12:                                               ; preds = %2, %2
  %13 = load atomic i32, ptr %7 acquire, align 4
  store i32 %13, ptr %5, align 4
  br label %16

14:                                               ; preds = %2
  %15 = load atomic i32, ptr %7 seq_cst, align 4
  store i32 %15, ptr %5, align 4
  br label %16

16:                                               ; preds = %14, %12, %10
  %17 = load i32, ptr %5, align 4, !tbaa !14
  call void @llvm.lifetime.end.p0(i64 4, ptr %5) #9
  ret i32 %17
}

; Function Attrs: nounwind uwtable
define hidden void @je_hook_invoke_dalloc(i32 noundef %0, ptr noundef %1, ptr noundef %2) #0 {
  %4 = alloca i32, align 4
  %5 = alloca ptr, align 8
  %6 = alloca ptr, align 8
  %7 = alloca ptr, align 8
  %8 = alloca i32, align 4
  %9 = alloca %struct.hooks_internal_s, align 8
  %10 = alloca i32, align 4
  %11 = alloca i8, align 1
  %12 = alloca ptr, align 8
  store i32 %0, ptr %4, align 4, !tbaa !14
  store ptr %1, ptr %5, align 8, !tbaa !11
  store ptr %2, ptr %6, align 8, !tbaa !28
  %13 = call i32 @atomic_load_u(ptr noundef @nhooks, i32 noundef 0)
  %14 = icmp eq i32 %13, 0
  %15 = xor i1 %14, true
  %16 = xor i1 %15, true
  %17 = zext i1 %16 to i32
  %18 = sext i32 %17 to i64
  %19 = call i64 @llvm.expect.i64(i64 %18, i64 1)
  %20 = icmp ne i64 %19, 0
  br i1 %20, label %21, label %22

21:                                               ; preds = %3
  br label %73

22:                                               ; preds = %3
  call void @llvm.lifetime.start.p0(i64 8, ptr %7) #9
  %23 = call ptr @hook_reentrantp()
  store ptr %23, ptr %7, align 8, !tbaa !30
  %24 = load ptr, ptr %7, align 8, !tbaa !30
  %25 = load i8, ptr %24, align 1, !tbaa !16, !range !21, !noundef !22
  %26 = trunc i8 %25 to i1
  br i1 %26, label %27, label %28

27:                                               ; preds = %22
  store i32 1, ptr %8, align 4
  br label %71

28:                                               ; preds = %22
  %29 = load ptr, ptr %7, align 8, !tbaa !30
  store i8 1, ptr %29, align 1, !tbaa !16
  call void @llvm.lifetime.start.p0(i64 40, ptr %9) #9
  call void @llvm.lifetime.start.p0(i64 4, ptr %10) #9
  store i32 0, ptr %10, align 4, !tbaa !14
  br label %30

30:                                               ; preds = %66, %28
  %31 = load i32, ptr %10, align 4, !tbaa !14
  %32 = icmp slt i32 %31, 4
  br i1 %32, label %34, label %33

33:                                               ; preds = %30
  store i32 2, ptr %8, align 4
  call void @llvm.lifetime.end.p0(i64 4, ptr %10) #9
  br label %69

34:                                               ; preds = %30
  call void @llvm.lifetime.start.p0(i64 1, ptr %11) #9
  %35 = load i32, ptr %10, align 4, !tbaa !14
  %36 = sext i32 %35 to i64
  %37 = getelementptr inbounds [4 x %struct.seq_hooks_t], ptr @hooks, i64 0, i64 %36
  %38 = call zeroext i1 @seq_try_load_hooks(ptr noundef %9, ptr noundef %37)
  %39 = zext i1 %38 to i8
  store i8 %39, ptr %11, align 1, !tbaa !16
  %40 = load i8, ptr %11, align 1, !tbaa !16, !range !21, !noundef !22
  %41 = trunc i8 %40 to i1
  br i1 %41, label %43, label %42

42:                                               ; preds = %34
  store i32 4, ptr %8, align 4
  br label %63

43:                                               ; preds = %34
  %44 = getelementptr inbounds nuw %struct.hooks_internal_s, ptr %9, i32 0, i32 1
  %45 = load i8, ptr %44, align 8, !tbaa !18, !range !21, !noundef !22
  %46 = trunc i8 %45 to i1
  br i1 %46, label %48, label %47

47:                                               ; preds = %43
  store i32 4, ptr %8, align 4
  br label %63

48:                                               ; preds = %43
  call void @llvm.lifetime.start.p0(i64 8, ptr %12) #9
  %49 = getelementptr inbounds nuw %struct.hooks_internal_s, ptr %9, i32 0, i32 0
  %50 = getelementptr inbounds nuw %struct.hooks_s, ptr %49, i32 0, i32 1
  %51 = load ptr, ptr %50, align 8, !tbaa !38
  store ptr %51, ptr %12, align 8, !tbaa !11
  %52 = load ptr, ptr %12, align 8, !tbaa !11
  %53 = icmp ne ptr %52, null
  br i1 %53, label %54, label %62

54:                                               ; preds = %48
  %55 = load ptr, ptr %12, align 8, !tbaa !11
  %56 = getelementptr inbounds nuw %struct.hooks_internal_s, ptr %9, i32 0, i32 0
  %57 = getelementptr inbounds nuw %struct.hooks_s, ptr %56, i32 0, i32 3
  %58 = load ptr, ptr %57, align 8, !tbaa !33
  %59 = load i32, ptr %4, align 4, !tbaa !14
  %60 = load ptr, ptr %5, align 8, !tbaa !11
  %61 = load ptr, ptr %6, align 8, !tbaa !28
  call void %55(ptr noundef %58, i32 noundef %59, ptr noundef %60, ptr noundef %61)
  br label %62

62:                                               ; preds = %54, %48
  call void @llvm.lifetime.end.p0(i64 8, ptr %12) #9
  store i32 0, ptr %8, align 4
  br label %63

63:                                               ; preds = %62, %47, %42
  call void @llvm.lifetime.end.p0(i64 1, ptr %11) #9
  %64 = load i32, ptr %8, align 4
  switch i32 %64, label %74 [
    i32 0, label %65
    i32 4, label %66
  ]

65:                                               ; preds = %63
  br label %66

66:                                               ; preds = %65, %63
  %67 = load i32, ptr %10, align 4, !tbaa !14
  %68 = add nsw i32 %67, 1
  store i32 %68, ptr %10, align 4, !tbaa !14
  br label %30, !llvm.loop !39

69:                                               ; preds = %33
  %70 = load ptr, ptr %7, align 8, !tbaa !30
  store i8 0, ptr %70, align 1, !tbaa !16
  call void @llvm.lifetime.end.p0(i64 40, ptr %9) #9
  store i32 0, ptr %8, align 4
  br label %71

71:                                               ; preds = %69, %27
  call void @llvm.lifetime.end.p0(i64 8, ptr %7) #9
  %72 = load i32, ptr %8, align 4
  switch i32 %72, label %74 [
    i32 0, label %73
    i32 1, label %73
  ]

73:                                               ; preds = %21, %71, %71
  ret void

74:                                               ; preds = %71, %63
  unreachable
}