; Function Attrs: nounwind uwtable
define hidden void @je_hook_invoke_dalloc(i32 noundef %0, ptr noundef %1, ptr noundef %2) local_unnamed_addr #0 {
atomic_load_u.exit:
  %3 = alloca [5 x i64], align 16
  %4 = load atomic i32, ptr @nhooks.0 monotonic, align 4
  %5 = icmp eq i32 %4, 0
  br i1 %5, label %28, label %6, !prof !21

6:                                                ; preds = %atomic_load_u.exit
  %7 = tail call fastcc ptr @hook_reentrantp()
  %8 = load i8, ptr %7, align 1, !tbaa !22, !range !24, !noundef !25
  %9 = trunc nuw i8 %8 to i1
  br i1 %9, label %28, label %10

10:                                               ; preds = %6
  store i8 1, ptr %7, align 1, !tbaa !22
  %.sroa.3.0..sroa_idx = getelementptr inbounds nuw i8, ptr %3, i64 8
  %.sroa.414.0..sroa_idx = getelementptr inbounds nuw i8, ptr %3, i64 24
  %.sroa.5.0..sroa_idx = getelementptr inbounds nuw i8, ptr %3, i64 32
  br label %12

11:                                               ; preds = %27
  store i8 0, ptr %7, align 1, !tbaa !22
  br label %28

12:                                               ; preds = %10, %27
  %indvars.iv = phi i64 [ 0, %10 ], [ %indvars.iv.next, %27 ]
  %13 = getelementptr inbounds nuw [4 x %struct.seq_hooks_t], ptr @hooks, i64 0, i64 %indvars.iv
  call void @llvm.lifetime.start.p0(i64 40, ptr nonnull %3) #6
  %14 = load atomic i64, ptr %13 acquire, align 16
  %15 = and i64 %14, 1
  %.not.i = icmp eq i64 %15, 0
  br i1 %.not.i, label %.preheader.i, label %seq_try_load_hooks.exit.thread

.preheader.i:                                     ; preds = %12
  %16 = getelementptr inbounds nuw i8, ptr %13, i64 8
  br label %19

17:                                               ; preds = %19
  fence acquire
  %18 = load atomic i64, ptr %13 monotonic, align 16
  %.not12.i = icmp eq i64 %14, %18
  br i1 %.not12.i, label %24, label %seq_try_load_hooks.exit.thread

19:                                               ; preds = %19, %.preheader.i
  %.01113.i = phi i64 [ 0, %.preheader.i ], [ %23, %19 ]
  %20 = getelementptr inbounds nuw [5 x %struct.atomic_zu_t], ptr %16, i64 0, i64 %.01113.i
  %21 = load atomic i64, ptr %20 monotonic, align 8
  %22 = getelementptr inbounds nuw [5 x i64], ptr %3, i64 0, i64 %.01113.i
  store i64 %21, ptr %22, align 8, !tbaa !16
  %23 = add nuw nsw i64 %.01113.i, 1
  %exitcond.not.i = icmp eq i64 %23, 5
  br i1 %exitcond.not.i, label %17, label %19, !llvm.loop !17

seq_try_load_hooks.exit.thread:                   ; preds = %12, %17
  call void @llvm.lifetime.end.p0(i64 40, ptr nonnull %3) #6
  br label %27

24:                                               ; preds = %17
  %.sroa.3.0.copyload = load ptr, ptr %.sroa.3.0..sroa_idx, align 8
  %.sroa.414.0.copyload = load ptr, ptr %.sroa.414.0..sroa_idx, align 8
  %.sroa.5.0.copyload = load i8, ptr %.sroa.5.0..sroa_idx, align 16
  call void @llvm.lifetime.end.p0(i64 40, ptr nonnull %3) #6
  %25 = trunc nuw i8 %.sroa.5.0.copyload to i1
  %.not = icmp ne ptr %.sroa.3.0.copyload, null
  %or.cond.not = select i1 %25, i1 %.not, i1 false
  br i1 %or.cond.not, label %26, label %27

26:                                               ; preds = %24
  tail call void %.sroa.3.0.copyload(ptr noundef %.sroa.414.0.copyload, i32 noundef %0, ptr noundef %1, ptr noundef %2) #6
  br label %27

27:                                               ; preds = %seq_try_load_hooks.exit.thread, %26, %24
  %indvars.iv.next = add nuw nsw i64 %indvars.iv, 1
  %exitcond.not = icmp eq i64 %indvars.iv.next, 4
  br i1 %exitcond.not, label %11, label %12, !llvm.loop !28

28:                                               ; preds = %11, %6, %atomic_load_u.exit
  ret void
}